target datalayout = "e-m:e-p270:32:32-p271:32:32-p272:64:64-i64:64-i128:128-f80:128-n8:16:32:64-S128"
target triple = "x86_64-pc-linux-gnu"

; Function Attrs: mustprogress nounwind uwtable
define internal noundef i64 @_ZN4absl13hash_internalL9HashLen16Emmm(i64 noundef %0, i64 noundef %1, i64 noundef %2) #2 {
  %4 = alloca i64, align 8
  %5 = alloca i64, align 8
  %6 = alloca i64, align 8
  %7 = alloca i64, align 8
  %8 = alloca i64, align 8
  store i64 %0, ptr %4, align 8, !tbaa !9
  store i64 %1, ptr %5, align 8, !tbaa !9
  store i64 %2, ptr %6, align 8, !tbaa !9
  call void @llvm.lifetime.start.p0(i64 8, ptr %7) #6
  %9 = load i64, ptr %4, align 8, !tbaa !9
  %10 = load i64, ptr %5, align 8, !tbaa !9
  %11 = xor i64 %9, %10
  %12 = load i64, ptr %6, align 8, !tbaa !9
  %13 = mul i64 %11, %12
  store i64 %13, ptr %7, align 8, !tbaa !9
  %14 = load i64, ptr %7, align 8, !tbaa !9
  %15 = lshr i64 %14, 47
  %16 = load i64, ptr %7, align 8, !tbaa !9
  %17 = xor i64 %16, %15
  store i64 %17, ptr %7, align 8, !tbaa !9
  call void @llvm.lifetime.start.p0(i64 8, ptr %8) #6
  %18 = load i64, ptr %5, align 8, !tbaa !9
  %19 = load i64, ptr %7, align 8, !tbaa !9
  %20 = xor i64 %18, %19
  %21 = load i64, ptr %6, align 8, !tbaa !9
  %22 = mul i64 %20, %21
  store i64 %22, ptr %8, align 8, !tbaa !9
  %23 = load i64, ptr %8, align 8, !tbaa !9
  %24 = lshr i64 %23, 47
  %25 = load i64, ptr %8, align 8, !tbaa !9
  %26 = xor i64 %25, %24
  store i64 %26, ptr %8, align 8, !tbaa !9
  %27 = load i64, ptr %6, align 8, !tbaa !9
  %28 = load i64, ptr %8, align 8, !tbaa !9
  %29 = mul i64 %28, %27
  store i64 %29, ptr %8, align 8, !tbaa !9
  %30 = load i64, ptr %8, align 8, !tbaa !9
  call void @llvm.lifetime.end.p0(i64 8, ptr %8) #6
  call void @llvm.lifetime.end.p0(i64 8, ptr %7) #6
  ret i64 %30
}

; Function Attrs: mustprogress nounwind uwtable
define internal noundef i64 @_ZN4absl13hash_internalL9HashLen16Emm(i64 noundef %0, i64 noundef %1) #2 {
  %3 = alloca i64, align 8
  %4 = alloca i64, align 8
  %5 = alloca i64, align 8
  store i64 %0, ptr %3, align 8, !tbaa !9
  store i64 %1, ptr %4, align 8, !tbaa !9
  call void @llvm.lifetime.start.p0(i64 8, ptr %5) #6
  store i64 -7070675565921424023, ptr %5, align 8, !tbaa !9
  %6 = load i64, ptr %3, align 8, !tbaa !9
  %7 = load i64, ptr %4, align 8, !tbaa !9
  %8 = call noundef i64 @_ZN4absl13hash_internalL9HashLen16Emmm(i64 noundef %6, i64 noundef %7, i64 noundef -7070675565921424023)
  call void @llvm.lifetime.end.p0(i64 8, ptr %5) #6
  ret i64 %8
}

; Function Attrs: mustprogress uwtable
define dso_local noundef i64 @_ZN4absl13hash_internal19CityHash64WithSeedsEPKcmmm(ptr noundef %0, i64 noundef %1, i64 noundef %2, i64 noundef %3) #0 {
  %5 = alloca ptr, align 8
  %6 = alloca i64, align 8
  %7 = alloca i64, align 8
  %8 = alloca i64, align 8
  store ptr %0, ptr %5, align 8, !tbaa !4
  store i64 %1, ptr %6, align 8, !tbaa !9
  store i64 %2, ptr %7, align 8, !tbaa !9
  store i64 %3, ptr %8, align 8, !tbaa !9
  %9 = load ptr, ptr %5, align 8, !tbaa !4
  %10 = load i64, ptr %6, align 8, !tbaa !9
  %11 = call noundef i64 @_ZN4absl13hash_internal10CityHash64EPKcm(ptr noundef %9, i64 noundef %10)
  %12 = load i64, ptr %7, align 8, !tbaa !9
  %13 = sub i64 %11, %12
  %14 = load i64, ptr %8, align 8, !tbaa !9
  %15 = call noundef i64 @_ZN4absl13hash_internalL9HashLen16Emm(i64 noundef %13, i64 noundef %14)
  ret i64 %15
}